target datalayout = "e-m:e-p270:32:32-p271:32:32-p272:64:64-i64:64-i128:128-f80:128-n8:16:32:64-S128"
target triple = "x86_64-pc-linux-gnu"

%"class.nblib::Box" = type { [3 x [3 x float]] }

; Function Attrs: mustprogress nounwind uwtable
define linkonce_odr noundef zeroext i1 @_ZNSt7__equalILb0EE5equalIPKfS3_EEbT_S4_T0_(ptr noundef %0, ptr noundef %1, ptr noundef %2) #2 comdat align 2 {
  %4 = alloca i1, align 1
  %5 = alloca ptr, align 8
  %6 = alloca ptr, align 8
  %7 = alloca ptr, align 8
  store ptr %0, ptr %5, align 8
  store ptr %1, ptr %6, align 8
  store ptr %2, ptr %7, align 8
  br label %8

8:                                                ; preds = %20, %3
  %9 = load ptr, ptr %5, align 8
  %10 = load ptr, ptr %6, align 8
  %11 = icmp ne ptr %9, %10
  br i1 %11, label %12, label %25

12:                                               ; preds = %8
  %13 = load ptr, ptr %5, align 8
  %14 = load float, ptr %13, align 4
  %15 = load ptr, ptr %7, align 8
  %16 = load float, ptr %15, align 4
  %17 = fcmp oeq float %14, %16
  br i1 %17, label %19, label %18

18:                                               ; preds = %12
  store i1 false, ptr %4, align 1
  br label %26

19:                                               ; preds = %12
  br label %20

20:                                               ; preds = %19
  %21 = load ptr, ptr %5, align 8
  %22 = getelementptr inbounds float, ptr %21, i32 1
  store ptr %22, ptr %5, align 8
  %23 = load ptr, ptr %7, align 8
  %24 = getelementptr inbounds float, ptr %23, i32 1
  store ptr %24, ptr %7, align 8
  br label %8, !llvm.loop !5

25:                                               ; preds = %8
  store i1 true, ptr %4, align 1
  br label %26

26:                                               ; preds = %25, %18
  %27 = load i1, ptr %4, align 1
  ret i1 %27
}

; Function Attrs: mustprogress uwtable
define linkonce_odr noundef zeroext i1 @_ZSt12__equal_aux1IPKfS1_EbT_S2_T0_(ptr noundef %0, ptr noundef %1, ptr noundef %2) #0 comdat {
  %4 = alloca ptr, align 8
  %5 = alloca ptr, align 8
  %6 = alloca ptr, align 8
  %7 = alloca i8, align 1
  store ptr %0, ptr %4, align 8
  store ptr %1, ptr %5, align 8
  store ptr %2, ptr %6, align 8
  store i8 0, ptr %7, align 1
  %8 = load ptr, ptr %4, align 8
  %9 = load ptr, ptr %5, align 8
  %10 = load ptr, ptr %6, align 8
  %11 = call noundef zeroext i1 @_ZNSt7__equalILb0EE5equalIPKfS3_EEbT_S4_T0_(ptr noundef %8, ptr noundef %9, ptr noundef %10)
  ret i1 %11
}

; Function Attrs: mustprogress nounwind uwtable
define linkonce_odr noundef ptr @_ZSt12__niter_baseIPKfET_S2_(ptr noundef %0) #2 comdat {
  %2 = alloca ptr, align 8
  store ptr %0, ptr %2, align 8
  %3 = load ptr, ptr %2, align 8
  ret ptr %3
}

; Function Attrs: mustprogress uwtable
define linkonce_odr noundef zeroext i1 @_ZSt11__equal_auxIPKfS1_EbT_S2_T0_(ptr noundef %0, ptr noundef %1, ptr noundef %2) #0 comdat {
  %4 = alloca ptr, align 8
  %5 = alloca ptr, align 8
  %6 = alloca ptr, align 8
  store ptr %0, ptr %4, align 8
  store ptr %1, ptr %5, align 8
  store ptr %2, ptr %6, align 8
  %7 = load ptr, ptr %4, align 8
  %8 = call noundef ptr @_ZSt12__niter_baseIPKfET_S2_(ptr noundef %7) #9
  %9 = load ptr, ptr %5, align 8
  %10 = call noundef ptr @_ZSt12__niter_baseIPKfET_S2_(ptr noundef %9) #9
  %11 = load ptr, ptr %6, align 8
  %12 = call noundef ptr @_ZSt12__niter_baseIPKfET_S2_(ptr noundef %11) #9
  %13 = call noundef zeroext i1 @_ZSt12__equal_aux1IPKfS1_EbT_S2_T0_(ptr noundef %8, ptr noundef %10, ptr noundef %12)
  ret i1 %13
}

; Function Attrs: mustprogress uwtable
define linkonce_odr noundef zeroext i1 @_ZSt5equalIPKfS1_EbT_S2_T0_(ptr noundef %0, ptr noundef %1, ptr noundef %2) #0 comdat {
  %4 = alloca ptr, align 8
  %5 = alloca ptr, align 8
  %6 = alloca ptr, align 8
  store ptr %0, ptr %4, align 8
  store ptr %1, ptr %5, align 8
  store ptr %2, ptr %6, align 8
  %7 = load ptr, ptr %4, align 8
  %8 = load ptr, ptr %5, align 8
  %9 = load ptr, ptr %6, align 8
  %10 = call noundef zeroext i1 @_ZSt11__equal_auxIPKfS1_EbT_S2_T0_(ptr noundef %7, ptr noundef %8, ptr noundef %9)
  ret i1 %10
}

; Function Attrs: mustprogress nounwind uwtable
define linkonce_odr noundef nonnull align 4 dereferenceable(36) ptr @_ZNK5nblib3Box12legacyMatrixEv(ptr noundef nonnull align 4 dereferenceable(36) %0) #2 comdat align 2 {
  %2 = alloca ptr, align 8
  store ptr %0, ptr %2, align 8
  %3 = load ptr, ptr %2, align 8
  %4 = getelementptr inbounds %"class.nblib::Box", ptr %3, i32 0, i32 0
  ret ptr %4
}

; Function Attrs: mustprogress uwtable
define noundef zeroext i1 @_ZN5nblibeqERKNS_3BoxES2_(ptr noundef nonnull align 4 dereferenceable(36) %0, ptr noundef nonnull align 4 dereferenceable(36) %1) #0 {
  %3 = alloca ptr, align 8
  %4 = alloca ptr, align 8
  store ptr %0, ptr %3, align 8
  store ptr %1, ptr %4, align 8
  %5 = load ptr, ptr %3, align 8
  %6 = call noundef nonnull align 4 dereferenceable(36) ptr @_ZNK5nblib3Box12legacyMatrixEv(ptr noundef nonnull align 4 dereferenceable(36) %5)
  %7 = getelementptr inbounds [3 x [3 x float]], ptr %6, i64 0, i64 0
  %8 = load ptr, ptr %3, align 8
  %9 = call noundef nonnull align 4 dereferenceable(36) ptr @_ZNK5nblib3Box12legacyMatrixEv(ptr noundef nonnull align 4 dereferenceable(36) %8)
  %10 = getelementptr inbounds [3 x [3 x float]], ptr %9, i64 0, i64 0
  %11 = getelementptr inbounds float, ptr %10, i64 9
  %12 = load ptr, ptr %4, align 8
  %13 = call noundef nonnull align 4 dereferenceable(36) ptr @_ZNK5nblib3Box12legacyMatrixEv(ptr noundef nonnull align 4 dereferenceable(36) %12)
  %14 = getelementptr inbounds [3 x [3 x float]], ptr %13, i64 0, i64 0
  %15 = call noundef zeroext i1 @_ZSt5equalIPKfS1_EbT_S2_T0_(ptr noundef %7, ptr noundef %11, ptr noundef %14)
  ret i1 %15
}