; Function Attrs: mustprogress nofree norecurse nosync nounwind willreturn memory(read, inaccessiblemem: none) uwtable
define noundef zeroext i1 @_ZN5nblibeqERKNS_3BoxES2_(ptr nocapture noundef nonnull readonly align 4 dereferenceable(36) %0, ptr nocapture noundef nonnull readonly align 4 dereferenceable(36) %1) local_unnamed_addr #9 {
  br label %.lr.ph.i.i.i.i

.lr.ph.i.i.i.i:                                   ; preds = %.lr.ph.i.i.i.i, %2
  %.011.i.i.i.i = phi ptr [ %1, %2 ], [ %6, %.lr.ph.i.i.i.i ]
  %.0810.i.i.i.i.idx = phi i64 [ 0, %2 ], [ %.0810.i.i.i.i.add, %.lr.ph.i.i.i.i ]
  %.0810.i.i.i.i.ptr = getelementptr inbounds i8, ptr %0, i64 %.0810.i.i.i.i.idx
  %3 = load float, ptr %.0810.i.i.i.i.ptr, align 4
  %4 = load float, ptr %.011.i.i.i.i, align 4
  %5 = fcmp oeq float %3, %4
  %.0810.i.i.i.i.add = add nuw nsw i64 %.0810.i.i.i.i.idx, 4
  %6 = getelementptr inbounds i8, ptr %.011.i.i.i.i, i64 4
  %.not.i.i.i.i = icmp ne i64 %.0810.i.i.i.i.add, 36
  %or.cond.not = select i1 %5, i1 %.not.i.i.i.i, i1 false
  br i1 %or.cond.not, label %.lr.ph.i.i.i.i, label %_ZSt5equalIPKfS1_EbT_S2_T0_.exit, !llvm.loop !5

_ZSt5equalIPKfS1_EbT_S2_T0_.exit:                 ; preds = %.lr.ph.i.i.i.i
  ret i1 %5
}